; Function Attrs: mustprogress uwtable
define hidden void @_ZN3sat3scc11updt_paramsERK10params_ref(ptr nocapture noundef nonnull writeonly align 8 dereferenceable(104) %this, ptr noundef nonnull align 8 dereferenceable(8) %_p) local_unnamed_addr #3 align 2 personality ptr @__gxx_personality_v0 {
entry:
  %p = alloca %struct.sat_scc_params, align 8
  store ptr %_p, ptr %p, align 8
  %g.i = getelementptr inbounds i8, ptr %p, i64 8
  call void @_ZN7gparams10get_moduleEPKc(ptr nonnull sret(%class.params_ref) align 8 %g.i, ptr noundef nonnull @.str.10)
  %0 = load ptr, ptr %p, align 8
  %call.i2 = invoke noundef zeroext i1 @_ZNK10params_ref8get_boolEPKcRKS_b(ptr noundef nonnull align 8 dereferenceable(8) %0, ptr noundef nonnull @.str.11, ptr noundef nonnull align 8 dereferenceable(8) %g.i, i1 noundef zeroext true)
          to label %invoke.cont unwind label %lpad

invoke.cont:                                      ; preds = %entry
  %m_scc = getelementptr inbounds i8, ptr %this, i64 8
  %frombool = zext i1 %call.i2 to i8
  store i8 %frombool, ptr %m_scc, align 8
  %1 = load ptr, ptr %p, align 8
  %call.i4 = invoke noundef zeroext i1 @_ZNK10params_ref8get_boolEPKcRKS_b(ptr noundef nonnull align 8 dereferenceable(8) %1, ptr noundef nonnull @.str.12, ptr noundef nonnull align 8 dereferenceable(8) %g.i, i1 noundef zeroext true)
          to label %invoke.cont2 unwind label %lpad

invoke.cont2:                                     ; preds = %invoke.cont
  %m_scc_tr = getelementptr inbounds i8, ptr %this, i64 9
  %frombool4 = zext i1 %call.i4 to i8
  store i8 %frombool4, ptr %m_scc_tr, align 1
  call void @_ZN10params_refD1Ev(ptr noundef nonnull align 8 dereferenceable(8) %g.i) #14
  ret void

lpad:                                             ; preds = %invoke.cont, %entry
  %2 = landingpad { ptr, i32 }
          cleanup
  call void @_ZN10params_refD1Ev(ptr noundef nonnull align 8 dereferenceable(8) %g.i) #14
  resume { ptr, i32 } %2
}